target datalayout = "e-m:e-p270:32:32-p271:32:32-p272:64:64-i64:64-i128:128-f80:128-n8:16:32:64-S128"
target triple = "x86_64-unknown-linux-gnu"

; Function Attrs: mustprogress uwtable
define hidden noundef i64 @_ZN6Assimp14IOSystem2Unzip4seekEPvS1_mi(ptr noundef %0, ptr noundef %stream, i64 noundef %offset, i32 noundef %origin) #2 align 2 {
entry:
  %.addr = alloca ptr, align 8
  %stream.addr = alloca ptr, align 8
  %offset.addr = alloca i64, align 8
  %origin.addr = alloca i32, align 4
  %io_stream = alloca ptr, align 8
  %assimp_origin = alloca i32, align 4
  store ptr %0, ptr %.addr, align 8
  store ptr %stream, ptr %stream.addr, align 8
  store i64 %offset, ptr %offset.addr, align 8
  store i32 %origin, ptr %origin.addr, align 4
  %1 = load ptr, ptr %stream.addr, align 8
  store ptr %1, ptr %io_stream, align 8
  %2 = load i32, ptr %origin.addr, align 4
  switch i32 %2, label %sw.default [
    i32 1, label %sw.bb
    i32 2, label %sw.bb1
    i32 0, label %sw.bb2
  ]

sw.default:                                       ; preds = %entry
  br label %sw.bb

sw.bb:                                            ; preds = %sw.default, %entry
  store i32 1, ptr %assimp_origin, align 4
  br label %sw.epilog

sw.bb1:                                           ; preds = %entry
  store i32 2, ptr %assimp_origin, align 4
  br label %sw.epilog

sw.bb2:                                           ; preds = %entry
  store i32 0, ptr %assimp_origin, align 4
  br label %sw.epilog

sw.epilog:                                        ; preds = %sw.bb2, %sw.bb1, %sw.bb
  %3 = load ptr, ptr %io_stream, align 8
  %4 = load i64, ptr %offset.addr, align 8
  %5 = load i32, ptr %assimp_origin, align 4
  %vtable = load ptr, ptr %3, align 8
  %vfn = getelementptr inbounds ptr, ptr %vtable, i64 4
  %6 = load ptr, ptr %vfn, align 8
  %call = call noundef i32 %6(ptr noundef nonnull align 8 dereferenceable(8) %3, i64 noundef %4, i32 noundef %5)
  %cmp = icmp eq i32 %call, 0
  %cond = select i1 %cmp, i32 0, i32 -1
  %conv = sext i32 %cond to i64
  ret i64 %conv
}