; Function Attrs: mustprogress uwtable
define hidden noundef i64 @_ZN6Assimp14IOSystem2Unzip4seekEPvS1_mi(ptr nocapture readnone %0, ptr noundef %stream, i64 noundef %offset, i32 noundef %origin) #2 align 2 {
entry:
  %switch.selectcmp = icmp eq i32 %origin, 2
  %switch.select = select i1 %switch.selectcmp, i32 2, i32 1
  %switch.selectcmp1 = icmp eq i32 %origin, 0
  %switch.select2 = select i1 %switch.selectcmp1, i32 0, i32 %switch.select
  %vtable = load ptr, ptr %stream, align 8
  %vfn = getelementptr inbounds i8, ptr %vtable, i64 32
  %1 = load ptr, ptr %vfn, align 8
  %call = tail call noundef i32 %1(ptr noundef nonnull align 8 dereferenceable(8) %stream, i64 noundef %offset, i32 noundef %switch.select2)
  %cmp = icmp ne i32 %call, 0
  %conv = sext i1 %cmp to i64
  ret i64 %conv
}